ARM GAS  /tmp/ccUT7F7s.s 			page 1


   1              		.syntax unified
   2              		.cpu cortex-m3
   3              		.fpu softvfp
   4              		.eabi_attribute 20, 1
   5              		.eabi_attribute 21, 1
   6              		.eabi_attribute 23, 3
   7              		.eabi_attribute 24, 1
   8              		.eabi_attribute 25, 1
   9              		.eabi_attribute 26, 1
  10              		.eabi_attribute 30, 2
  11              		.eabi_attribute 34, 1
  12              		.eabi_attribute 18, 4
  13              		.thumb
  14              		.file	"main.c"
  15              		.text
  16              	.Ltext0:
  17              		.cfi_sections	.debug_frame
  18              		.section	.text.gyroDemo,"ax",%progbits
  19              		.align	2
  20              		.p2align 4,,15
  21              		.thumb
  22              		.thumb_func
  23              		.type	gyroDemo, %function
  24              	gyroDemo:
  25              	.LFB64:
  26              		.file 1 "main.c"
  27              		.loc 1 40 0
  28              		.cfi_startproc
  29              		@ args = 0, pretend = 0, frame = 8
  30              		@ frame_needed = 0, uses_anonymous_args = 0
  31              	.LVL0:
  32 0000 10B5     		push	{r4, lr}
  33              	.LCFI0:
  34              		.cfi_def_cfa_offset 8
  35              		.cfi_offset 4, -8
  36              		.cfi_offset 14, -4
  37              		.loc 1 41 0
  38 0002 6821     		movs	r1, #104
  39              		.loc 1 40 0
  40 0004 84B0     		sub	sp, sp, #16
  41              	.LCFI1:
  42              		.cfi_def_cfa_offset 24
  43              		.loc 1 41 0
  44 0006 2848     		ldr	r0, .L4
  45              	.LVL1:
  46 0008 FFF7FEFF 		bl	gyroInit
  47              	.LVL2:
  48              		.loc 1 42 0
  49 000c 2648     		ldr	r0, .L4
  50 000e 1C21     		movs	r1, #28
  51 0010 FFF7FEFF 		bl	accInit
  52              	.LVL3:
  53 0014 0DF10E04 		add	r4, sp, #14
  54              	.LVL4:
  55              	.L2:
  56              	.LBB2:
  57              		.loc 1 48 0 discriminator 1
ARM GAS  /tmp/ccUT7F7s.s 			page 2


  58 0018 03AB     		add	r3, sp, #12
  59 001a 0DF10A02 		add	r2, sp, #10
  60 001e 6821     		movs	r1, #104
  61 0020 0094     		str	r4, [sp, #0]
  62 0022 2148     		ldr	r0, .L4
  63 0024 FFF7FEFF 		bl	gyroRead
  64              	.LVL5:
  65              		.loc 1 49 0 discriminator 1
  66 0028 0DF10902 		add	r2, sp, #9
  67 002c 6821     		movs	r1, #104
  68 002e 1E48     		ldr	r0, .L4
  69 0030 FFF7FEFF 		bl	tempRead
  70              	.LVL6:
  71              		.loc 1 50 0 discriminator 1
  72 0034 BDF90A20 		ldrsh	r2, [sp, #10]
  73 0038 1C48     		ldr	r0, .L4+4
  74 003a 1D49     		ldr	r1, .L4+8
  75 003c FFF7FEFF 		bl	chprintf
  76              	.LVL7:
  77              		.loc 1 51 0 discriminator 1
  78 0040 BDF90C20 		ldrsh	r2, [sp, #12]
  79 0044 1948     		ldr	r0, .L4+4
  80 0046 1B49     		ldr	r1, .L4+12
  81 0048 FFF7FEFF 		bl	chprintf
  82              	.LVL8:
  83              		.loc 1 52 0 discriminator 1
  84 004c BDF90E20 		ldrsh	r2, [sp, #14]
  85 0050 1648     		ldr	r0, .L4+4
  86 0052 1949     		ldr	r1, .L4+16
  87 0054 FFF7FEFF 		bl	chprintf
  88              	.LVL9:
  89              		.loc 1 54 0 discriminator 1
  90 0058 03AB     		add	r3, sp, #12
  91 005a 0DF10A02 		add	r2, sp, #10
  92 005e 1C21     		movs	r1, #28
  93 0060 0094     		str	r4, [sp, #0]
  94 0062 1148     		ldr	r0, .L4
  95 0064 FFF7FEFF 		bl	accRead
  96              	.LVL10:
  97              		.loc 1 55 0 discriminator 1
  98 0068 BDF90A20 		ldrsh	r2, [sp, #10]
  99 006c 0F48     		ldr	r0, .L4+4
 100 006e 1349     		ldr	r1, .L4+20
 101 0070 FFF7FEFF 		bl	chprintf
 102              	.LVL11:
 103              		.loc 1 56 0 discriminator 1
 104 0074 BDF90C20 		ldrsh	r2, [sp, #12]
 105 0078 0C48     		ldr	r0, .L4+4
 106 007a 1149     		ldr	r1, .L4+24
 107 007c FFF7FEFF 		bl	chprintf
 108              	.LVL12:
 109              		.loc 1 57 0 discriminator 1
 110 0080 BDF90E20 		ldrsh	r2, [sp, #14]
 111 0084 0948     		ldr	r0, .L4+4
 112 0086 0F49     		ldr	r1, .L4+28
 113 0088 FFF7FEFF 		bl	chprintf
 114              	.LVL13:
ARM GAS  /tmp/ccUT7F7s.s 			page 3


 115              		.loc 1 58 0 discriminator 1
 116 008c 9DF80920 		ldrb	r2, [sp, #9]	@ zero_extendqisi2
 117 0090 0648     		ldr	r0, .L4+4
 118 0092 0D49     		ldr	r1, .L4+32
 119 0094 FFF7FEFF 		bl	chprintf
 120              	.LVL14:
 121              		.loc 1 59 0 discriminator 1
 122 0098 0448     		ldr	r0, .L4+4
 123 009a 0C49     		ldr	r1, .L4+36
 124 009c FFF7FEFF 		bl	chprintf
 125              	.LVL15:
 126              		.loc 1 60 0 discriminator 1
 127 00a0 3220     		movs	r0, #50
 128 00a2 FFF7FEFF 		bl	chThdSleep
 129              	.LVL16:
 130 00a6 B7E7     		b	.L2
 131              	.L5:
 132              		.align	2
 133              	.L4:
 134 00a8 00000000 		.word	I2CD2
 135 00ac 00000000 		.word	SD2
 136 00b0 00000000 		.word	.LC0
 137 00b4 10000000 		.word	.LC1
 138 00b8 20000000 		.word	.LC2
 139 00bc 30000000 		.word	.LC3
 140 00c0 3C000000 		.word	.LC4
 141 00c4 48000000 		.word	.LC5
 142 00c8 54000000 		.word	.LC6
 143 00cc 60000000 		.word	.LC7
 144              	.LBE2:
 145              		.cfi_endproc
 146              	.LFE64:
 147              		.size	gyroDemo, .-gyroDemo
 148              		.section	.text.heartBeat,"ax",%progbits
 149              		.align	2
 150              		.p2align 4,,15
 151              		.thumb
 152              		.thumb_func
 153              		.type	heartBeat, %function
 154              	heartBeat:
 155              	.LFB63:
 156              		.loc 1 22 0
 157              		.cfi_startproc
 158              		@ args = 0, pretend = 0, frame = 0
 159              		@ frame_needed = 0, uses_anonymous_args = 0
 160              	.LVL17:
 161 0000 F8B5     		push	{r3, r4, r5, r6, r7, lr}
 162              	.LCFI2:
 163              		.cfi_def_cfa_offset 24
 164              		.cfi_offset 3, -24
 165              		.cfi_offset 4, -20
 166              		.cfi_offset 5, -16
 167              		.cfi_offset 6, -12
 168              		.cfi_offset 7, -8
 169              		.cfi_offset 14, -4
 170              		.loc 1 23 0
 171 0002 0D48     		ldr	r0, .L8
ARM GAS  /tmp/ccUT7F7s.s 			page 4


 172              	.LVL18:
 173 0004 0D49     		ldr	r1, .L8+4
 174 0006 FFF7FEFF 		bl	chprintf
 175              	.LVL19:
 176              		.loc 1 24 0
 177 000a 0B48     		ldr	r0, .L8
 178 000c 0C49     		ldr	r1, .L8+8
 179 000e FFF7FEFF 		bl	chprintf
 180              	.LVL20:
 181              		.loc 1 28 0
 182 0012 4FF44064 		mov	r4, #3072
 183 0016 4FF48076 		mov	r6, #256
 184 001a C4F20104 		movt	r4, 16385
 185 001e 3746     		mov	r7, r6
 186              		.loc 1 29 0
 187 0020 8025     		movs	r5, #128
 188              	.L7:
 189              		.loc 1 28 0 discriminator 1
 190 0022 2761     		str	r7, [r4, #16]
 191              		.loc 1 30 0 discriminator 1
 192 0024 FA20     		movs	r0, #250
 193              		.loc 1 29 0 discriminator 1
 194 0026 6561     		str	r5, [r4, #20]
 195              		.loc 1 30 0 discriminator 1
 196 0028 FFF7FEFF 		bl	chThdSleep
 197              	.LVL21:
 198              		.loc 1 31 0 discriminator 1
 199 002c 6661     		str	r6, [r4, #20]
 200              		.loc 1 33 0 discriminator 1
 201 002e FA20     		movs	r0, #250
 202              		.loc 1 32 0 discriminator 1
 203 0030 2561     		str	r5, [r4, #16]
 204              		.loc 1 33 0 discriminator 1
 205 0032 FFF7FEFF 		bl	chThdSleep
 206              	.LVL22:
 207 0036 F4E7     		b	.L7
 208              	.L9:
 209              		.align	2
 210              	.L8:
 211 0038 00000000 		.word	SD2
 212 003c 60000000 		.word	.LC7
 213 0040 64000000 		.word	.LC8
 214              		.cfi_endproc
 215              	.LFE63:
 216              		.size	heartBeat, .-heartBeat
 217 0044 AFF30080 		.section	.text.startup.main,"ax",%progbits
 217      AFF30080 
 217      AFF30080 
 218              		.align	2
 219              		.p2align 4,,15
 220              		.global	main
 221              		.thumb
 222              		.thumb_func
 223              		.type	main, %function
 224              	main:
 225              	.LFB65:
 226              		.loc 1 66 0
ARM GAS  /tmp/ccUT7F7s.s 			page 5


 227              		.cfi_startproc
 228              		@ args = 0, pretend = 0, frame = 0
 229              		@ frame_needed = 0, uses_anonymous_args = 0
 230 0000 10B5     		push	{r4, lr}
 231              	.LCFI3:
 232              		.cfi_def_cfa_offset 8
 233              		.cfi_offset 4, -8
 234              		.cfi_offset 14, -4
 235 0002 82B0     		sub	sp, sp, #8
 236              	.LCFI4:
 237              		.cfi_def_cfa_offset 16
 238              		.loc 1 67 0
 239 0004 FFF7FEFF 		bl	halInit
 240              	.LVL23:
 241              		.loc 1 68 0
 242 0008 FFF7FEFF 		bl	chSysInit
 243              	.LVL24:
 244              		.loc 1 70 0
 245 000c 40F20000 		movw	r0, #:lower16:SD2
 246 0010 0021     		movs	r1, #0
 247 0012 C0F20000 		movt	r0, #:upper16:SD2
 248 0016 FFF7FEFF 		bl	sdStart
 249              	.LVL25:
 250              		.loc 1 71 0
 251 001a 40F20000 		movw	r0, #:lower16:I2CD2
 252 001e 40F20001 		movw	r1, #:lower16:.LANCHOR0
 253 0022 C0F20000 		movt	r0, #:upper16:I2CD2
 254 0026 C0F20001 		movt	r1, #:upper16:.LANCHOR0
 255 002a FFF7FEFF 		bl	i2cStart
 256              	.LVL26:
 257              		.loc 1 74 0
 258 002e 0024     		movs	r4, #0
 259 0030 40F20003 		movw	r3, #:lower16:heartBeat
 260 0034 40F20000 		movw	r0, #:lower16:.LANCHOR1
 261 0038 D021     		movs	r1, #208
 262 003a 4022     		movs	r2, #64
 263 003c C0F20003 		movt	r3, #:upper16:heartBeat
 264 0040 0094     		str	r4, [sp, #0]
 265 0042 C0F20000 		movt	r0, #:upper16:.LANCHOR1
 266 0046 FFF7FEFF 		bl	chThdCreateStatic
 267              	.LVL27:
 268              		.loc 1 75 0
 269 004a 40F20000 		movw	r0, #:lower16:.LANCHOR2
 270 004e 40F20003 		movw	r3, #:lower16:gyroDemo
 271 0052 0094     		str	r4, [sp, #0]
 272 0054 4FF4D871 		mov	r1, #432
 273 0058 4022     		movs	r2, #64
 274 005a C0F20003 		movt	r3, #:upper16:gyroDemo
 275 005e C0F20000 		movt	r0, #:upper16:.LANCHOR2
 276 0062 FFF7FEFF 		bl	chThdCreateStatic
 277              	.LVL28:
 278              		.loc 1 76 0
 279 0066 2046     		mov	r0, r4
 280 0068 02B0     		add	sp, sp, #8
 281 006a 10BD     		pop	{r4, pc}
 282              		.cfi_endproc
 283              	.LFE65:
ARM GAS  /tmp/ccUT7F7s.s 			page 6


 284              		.size	main, .-main
 285 006c AFF30080 		.section	.rodata.i2cCfg,"a",%progbits
 286              		.align	2
 287              		.set	.LANCHOR0,. + 0
 288              		.type	i2cCfg, %object
 289              		.size	i2cCfg, 12
 290              	i2cCfg:
 291 0000 01       		.byte	1
 292 0001 000000   		.space	3
 293 0004 801A0600 		.word	400000
 294 0008 02       		.byte	2
 295 0009 000000   		.space	3
 296              		.section	.rodata.str1.4,"aMS",%progbits,1
 297              		.align	2
 298              	.LC0:
 299 0000 25642067 		.ascii	"%d gyroX    \000"
 299      79726F58 
 299      20202020 
 299      00
 300 000d 000000   		.space	3
 301              	.LC1:
 302 0010 25642067 		.ascii	"%d gyroY    \000"
 302      79726F59 
 302      20202020 
 302      00
 303 001d 000000   		.space	3
 304              	.LC2:
 305 0020 25642067 		.ascii	"%d gyroZ    \000"
 305      79726F5A 
 305      20202020 
 305      00
 306 002d 000000   		.space	3
 307              	.LC3:
 308 0030 25642061 		.ascii	"%d accX    \000"
 308      63635820 
 308      20202000 
 309              	.LC4:
 310 003c 25642061 		.ascii	"%d accY    \000"
 310      63635920 
 310      20202000 
 311              	.LC5:
 312 0048 25642061 		.ascii	"%d accZ    \000"
 312      63635A20 
 312      20202000 
 313              	.LC6:
 314 0054 256420C2 		.ascii	"%d \302\260C    \000"
 314      B0432020 
 314      202000
 315 005f 00       		.space	1
 316              	.LC7:
 317 0060 0A0D00   		.ascii	"\012\015\000"
 318 0063 00       		.space	1
 319              	.LC8:
 320 0064 48656C6C 		.ascii	"Hello world!\012\015\000"
 320      6F20776F 
 320      726C6421 
 320      0A0D00
ARM GAS  /tmp/ccUT7F7s.s 			page 7


 321 0073 00       		.section	.bss.heartWrkArea,"aw",%nobits
 322              		.align	3
 323              		.set	.LANCHOR1,. + 0
 324              		.type	heartWrkArea, %object
 325              		.size	heartWrkArea, 208
 326              	heartWrkArea:
 327 0000 00000000 		.space	208
 327      00000000 
 327      00000000 
 327      00000000 
 327      00000000 
 328              		.section	.bss.gyroDemoWrkArea,"aw",%nobits
 329              		.align	3
 330              		.set	.LANCHOR2,. + 0
 331              		.type	gyroDemoWrkArea, %object
 332              		.size	gyroDemoWrkArea, 432
 333              	gyroDemoWrkArea:
 334 0000 00000000 		.space	432
 334      00000000 
 334      00000000 
 334      00000000 
 334      00000000 
 335              		.text
 336              	.Letext0:
 337              		.file 2 "/usr/bin/../lib/gcc/arm-none-eabi/4.7.4/include/stddef.h"
 338              		.file 3 "/usr/bin/../lib/gcc/arm-none-eabi/4.7.4/../../../../arm-none-eabi/include/stdint.h"
 339              		.file 4 "../../os/ports/GCC/ARMCMx/chtypes.h"
 340              		.file 5 "../../os/kernel/include/chlists.h"
 341              		.file 6 "../../os/kernel/include/chthreads.h"
 342              		.file 7 "../../os/ports/GCC/ARMCMx/chcore_v7m.h"
 343              		.file 8 "../../os/kernel/include/chmtx.h"
 344              		.file 9 "../../os/kernel/include/chevents.h"
 345              		.file 10 "../../os/kernel/include/chqueues.h"
 346              		.file 11 "../../os/kernel/include/chstreams.h"
 347              		.file 12 "../../os/hal/platforms/STM32F1xx/stm32f10x.h"
 348              		.file 13 "../../os/hal/platforms/STM32F1xx/stm32_dma.h"
 349              		.file 14 "../../os/hal/include/io_channel.h"
 350              		.file 15 "../../os/hal/platforms/STM32/GPIOv1/pal_lld.h"
 351              		.file 16 "../../os/hal/include/i2c.h"
 352              		.file 17 "../../os/hal/platforms/STM32/I2Cv1/i2c_lld.h"
 353              		.file 18 "../../os/hal/include/serial.h"
 354              		.file 19 "../../os/hal/platforms/STM32/USARTv1/serial_lld.h"
 355              		.file 20 "../../os/ports/common/ARMCMx/CMSIS/include/core_cm3.h"
 356              		.file 21 "../../os/various/chprintf.h"
 357              		.file 22 "../../os/hal/include/hal.h"
 358              		.file 23 "../../os/kernel/include/chsys.h"